; Function Attrs: mustprogress uwtable
define hidden noundef zeroext i1 @_ZN2cv21VideoCapture_obsensor11setPropertyEid(ptr nocapture nonnull readnone align 8 %0, i32 noundef %1, double %2) unnamed_addr #3 align 2 personality ptr @__gxx_personality_v0 {
  %4 = alloca %"class.std::__cxx11::basic_stringstream", align 8
  %5 = alloca %"class.std::__cxx11::basic_string", align 8
  %6 = tail call noundef ptr @_ZN2cv5utils7logging8internal15getGlobalLogTagEv()
  %.not = icmp eq ptr %6, null
  br i1 %.not, label %11, label %7

7:                                                ; preds = %3
  %8 = getelementptr inbounds i8, ptr %6, i64 8
  %9 = load i32, ptr %8, align 8
  %10 = icmp slt i32 %9, 3
  br i1 %10, label %29, label %11

11:                                               ; preds = %7, %3
  call void @_ZNSt7__cxx1118basic_stringstreamIcSt11char_traitsIcESaIcEEC1Ev(ptr noundef nonnull align 8 dereferenceable(128) %4)
  %12 = getelementptr inbounds i8, ptr %4, i64 16
  %13 = invoke noundef nonnull align 8 dereferenceable(8) ptr @_ZStlsISt11char_traitsIcEERSt13basic_ostreamIcT_ES5_PKc(ptr noundef nonnull align 8 dereferenceable(8) %12, ptr noundef nonnull @.str)
          to label %14 unwind label %24

14:                                               ; preds = %11
  %15 = invoke noundef nonnull align 8 dereferenceable(8) ptr @_ZNSolsEi(ptr noundef nonnull align 8 dereferenceable(8) %13, i32 noundef %1)
          to label %16 unwind label %24

16:                                               ; preds = %14
  br i1 %.not, label %19, label %17

17:                                               ; preds = %16
  %18 = load ptr, ptr %6, align 8
  br label %19

19:                                               ; preds = %16, %17
  %20 = phi ptr [ %18, %17 ], [ null, %16 ]
  invoke void @_ZNKSt7__cxx1118basic_stringstreamIcSt11char_traitsIcESaIcEE3strEv(ptr dead_on_unwind nonnull writable sret(%"class.std::__cxx11::basic_string") align 8 %5, ptr noundef nonnull align 8 dereferenceable(128) %4)
          to label %21 unwind label %24

21:                                               ; preds = %19
  %22 = call noundef ptr @_ZNKSt7__cxx1112basic_stringIcSt11char_traitsIcESaIcEE5c_strEv(ptr noundef nonnull align 8 dereferenceable(32) %5) #18
  invoke void @_ZN2cv5utils7logging8internal17writeLogMessageExENS1_8LogLevelEPKcS5_iS5_S5_(i32 noundef 3, ptr noundef %20, ptr noundef nonnull @.str.2, i32 noundef 218, ptr noundef nonnull @__func__._ZN2cv21VideoCapture_obsensor11setPropertyEid, ptr noundef %22)
          to label %23 unwind label %26

23:                                               ; preds = %21
  call void @_ZNSt7__cxx1112basic_stringIcSt11char_traitsIcESaIcEED1Ev(ptr noundef nonnull align 8 dereferenceable(32) %5) #18
  call void @_ZNSt7__cxx1118basic_stringstreamIcSt11char_traitsIcESaIcEED1Ev(ptr noundef nonnull align 8 dereferenceable(128) %4) #18
  br label %29

24:                                               ; preds = %19, %14, %11
  %25 = landingpad { ptr, i32 }
          cleanup
  br label %28

26:                                               ; preds = %21
  %27 = landingpad { ptr, i32 }
          cleanup
  call void @_ZNSt7__cxx1112basic_stringIcSt11char_traitsIcESaIcEED1Ev(ptr noundef nonnull align 8 dereferenceable(32) %5) #18
  br label %28

28:                                               ; preds = %26, %24
  %.pn = phi { ptr, i32 } [ %27, %26 ], [ %25, %24 ]
  call void @_ZNSt7__cxx1118basic_stringstreamIcSt11char_traitsIcESaIcEED1Ev(ptr noundef nonnull align 8 dereferenceable(128) %4) #18
  resume { ptr, i32 } %.pn

29:                                               ; preds = %7, %23
  ret i1 false
}